target datalayout = "e-m:e-p270:32:32-p271:32:32-p272:64:64-i64:64-i128:128-f80:128-n8:16:32:64-S128"
target triple = "x86_64-pc-linux-gnu"

%"class.std::vector" = type { %"struct.std::_Vector_base" }
%"struct.std::_Vector_base" = type { %"struct.std::_Vector_base<std::__cxx11::basic_string<char>, std::allocator<std::__cxx11::basic_string<char>>>::_Vector_impl" }
%"struct.std::_Vector_base<std::__cxx11::basic_string<char>, std::allocator<std::__cxx11::basic_string<char>>>::_Vector_impl" = type { %"struct.std::_Vector_base<std::__cxx11::basic_string<char>, std::allocator<std::__cxx11::basic_string<char>>>::_Vector_impl_data" }
%"struct.std::_Vector_base<std::__cxx11::basic_string<char>, std::allocator<std::__cxx11::basic_string<char>>>::_Vector_impl_data" = type { ptr, ptr, ptr }
%"class.std::__cxx11::basic_string" = type { %"struct.std::__cxx11::basic_string<char>::_Alloc_hider", i64, %union.anon }
%"struct.std::__cxx11::basic_string<char>::_Alloc_hider" = type { ptr }
%union.anon = type { i64, [8 x i8] }
%"struct.std::_Rb_tree_key_compare" = type { %"struct.std::less" }
%"struct.std::less" = type { i8 }
%"struct.std::_Rb_tree_header" = type { %"struct.std::_Rb_tree_node_base", i64 }
%"struct.std::_Rb_tree_node_base" = type { i32, ptr, ptr, ptr }
%"class.casadi::Feasiblesqpmethod" = type { %"class.casadi::Nlpsol", %"struct.casadi::casadi_feasiblesqpmethod_prob", %"class.casadi::Function", %"class.casadi::Function", i8, i8, i8, i64, i64, i64, i64, i64, double, double, i8, i8, i8, i8, %"class.casadi::Sparsity", %"class.casadi::Sparsity", %"struct.casadi::ConvexifyData", i8, double, double, double, double, double, double, double, double, double, double, double, %"class.std::vector.52", double, i64, i64 }
%"class.casadi::Nlpsol" = type { %"class.casadi::OracleFunction", %"class.casadi::PluginInterface", %"struct.casadi::casadi_nlpsol_prob", i64, i64, i64, %"class.casadi::Function", i64, %"class.std::__cxx11::basic_string", %"class.std::map.28", %"class.std::vector.44", %"class.casadi::Function", %"class.std::vector.46", %"class.std::vector.46", i8, i8, i8, i8, i8, i8, i8, i8, i8, double, i8, %"class.std::vector.19", i8, %"class.casadi::WeakRef" }
%"class.casadi::OracleFunction" = type { %"class.casadi::FunctionInternal", %"class.casadi::Function", %"class.std::map.28", %"class.std::map.28", i8, i32, %"class.std::map.39", %"class.std::vector", i64, i64, i64, i64 }
%"class.casadi::FunctionInternal" = type { %"class.casadi::ProtoFunction", i8, i8, i64, i64, %"class.std::vector.19", %"class.std::vector.19", %"class.std::vector.23", %"class.std::vector.23", %"class.std::vector", %"class.std::vector", i8, i8, %"class.std::__cxx11::basic_string", %"class.std::__cxx11::basic_string", %"class.std::__cxx11::basic_string", i8, ptr, ptr, ptr, %"class.std::map.28", i8, %"class.std::map.28", %"class.std::map.33", [2 x %"class.std::vector.23"], %"class.casadi::Function", ptr, %"class.std::__cxx11::basic_string", %"class.casadi::Importer", %"class.std::map.28", double, i8, i8, i8, i8, i8, i8, i8, i8, double, double, i64, i8, %"class.std::map.28", double, %"class.std::__cxx11::basic_string", i8, i8, i64, i8, i8, i8, %"class.std::__cxx11::basic_string", %"class.std::__cxx11::basic_string", %"class.std::map.28", %"class.std::map.28", %"class.std::map.28", %"class.std::map.28", %"class.casadi::Function", i64, i64, i64, i64, i64, i64, i64, i64, i64 }
%"class.casadi::ProtoFunction" = type { %"class.casadi::SharedObjectInternal", %"class.std::__cxx11::basic_string", i8, i8, i8, i8, i8, %"class.std::vector.11", %"class.std::stack" }
%"class.casadi::SharedObjectInternal" = type { ptr, i64, ptr }
%"class.std::vector.11" = type { %"struct.std::_Vector_base.12" }
%"struct.std::_Vector_base.12" = type { %"struct.std::_Vector_base<void *, std::allocator<void *>>::_Vector_impl" }
%"struct.std::_Vector_base<void *, std::allocator<void *>>::_Vector_impl" = type { %"struct.std::_Vector_base<void *, std::allocator<void *>>::_Vector_impl_data" }
%"struct.std::_Vector_base<void *, std::allocator<void *>>::_Vector_impl_data" = type { ptr, ptr, ptr }
%"class.std::stack" = type { %"class.std::deque" }
%"class.std::deque" = type { %"class.std::_Deque_base" }
%"class.std::_Deque_base" = type { %"struct.std::_Deque_base<int, std::allocator<int>>::_Deque_impl" }
%"struct.std::_Deque_base<int, std::allocator<int>>::_Deque_impl" = type { %"struct.std::_Deque_base<int, std::allocator<int>>::_Deque_impl_data" }
%"struct.std::_Deque_base<int, std::allocator<int>>::_Deque_impl_data" = type { ptr, i64, %"struct.std::_Deque_iterator", %"struct.std::_Deque_iterator" }
%"struct.std::_Deque_iterator" = type { ptr, ptr, ptr, ptr }
%"class.std::vector.23" = type { %"struct.std::_Vector_base.24" }
%"struct.std::_Vector_base.24" = type { %"struct.std::_Vector_base<casadi::Sparsity, std::allocator<casadi::Sparsity>>::_Vector_impl" }
%"struct.std::_Vector_base<casadi::Sparsity, std::allocator<casadi::Sparsity>>::_Vector_impl" = type { %"struct.std::_Vector_base<casadi::Sparsity, std::allocator<casadi::Sparsity>>::_Vector_impl_data" }
%"struct.std::_Vector_base<casadi::Sparsity, std::allocator<casadi::Sparsity>>::_Vector_impl_data" = type { ptr, ptr, ptr }
%"class.std::map.33" = type { %"class.std::_Rb_tree.34" }
%"class.std::_Rb_tree.34" = type { %"struct.std::_Rb_tree<std::__cxx11::basic_string<char>, std::pair<const std::__cxx11::basic_string<char>, casadi::WeakRef>, std::_Select1st<std::pair<const std::__cxx11::basic_string<char>, casadi::WeakRef>>, std::less<std::__cxx11::basic_string<char>>>::_Rb_tree_impl" }
%"struct.std::_Rb_tree<std::__cxx11::basic_string<char>, std::pair<const std::__cxx11::basic_string<char>, casadi::WeakRef>, std::_Select1st<std::pair<const std::__cxx11::basic_string<char>, casadi::WeakRef>>, std::less<std::__cxx11::basic_string<char>>>::_Rb_tree_impl" = type { %"struct.std::_Rb_tree_key_compare", %"struct.std::_Rb_tree_header" }
%"class.casadi::Importer" = type { %"class.casadi::SharedObject" }
%"class.casadi::SharedObject" = type { ptr }
%"class.std::map.39" = type { %"class.std::_Rb_tree.40" }
%"class.std::_Rb_tree.40" = type { %"struct.std::_Rb_tree<std::__cxx11::basic_string<char>, std::pair<const std::__cxx11::basic_string<char>, casadi::OracleFunction::RegFun>, std::_Select1st<std::pair<const std::__cxx11::basic_string<char>, casadi::OracleFunction::RegFun>>, std::less<std::__cxx11::basic_string<char>>>::_Rb_tree_impl" }
%"struct.std::_Rb_tree<std::__cxx11::basic_string<char>, std::pair<const std::__cxx11::basic_string<char>, casadi::OracleFunction::RegFun>, std::_Select1st<std::pair<const std::__cxx11::basic_string<char>, casadi::OracleFunction::RegFun>>, std::less<std::__cxx11::basic_string<char>>>::_Rb_tree_impl" = type { %"struct.std::_Rb_tree_key_compare", %"struct.std::_Rb_tree_header" }
%"class.casadi::PluginInterface" = type { ptr }
%"struct.casadi::casadi_nlpsol_prob" = type { i64, i64, i64, %"struct.casadi::casadi_nlpsol_detect_bounds_prob" }
%"struct.casadi::casadi_nlpsol_detect_bounds_prob" = type { i64, i64, i64, i64, i64, i64, ptr, ptr, ptr, ptr, ptr }
%"class.std::map.28" = type { %"class.std::_Rb_tree.29" }
%"class.std::_Rb_tree.29" = type { %"struct.std::_Rb_tree<std::__cxx11::basic_string<char>, std::pair<const std::__cxx11::basic_string<char>, casadi::GenericType>, std::_Select1st<std::pair<const std::__cxx11::basic_string<char>, casadi::GenericType>>, std::less<std::__cxx11::basic_string<char>>>::_Rb_tree_impl" }
%"struct.std::_Rb_tree<std::__cxx11::basic_string<char>, std::pair<const std::__cxx11::basic_string<char>, casadi::GenericType>, std::_Select1st<std::pair<const std::__cxx11::basic_string<char>, casadi::GenericType>>, std::less<std::__cxx11::basic_string<char>>>::_Rb_tree_impl" = type { %"struct.std::_Rb_tree_key_compare", %"struct.std::_Rb_tree_header" }
%"class.std::vector.44" = type { %"struct.std::_Vector_base.45" }
%"struct.std::_Vector_base.45" = type { %"struct.std::_Vector_base<char, std::allocator<char>>::_Vector_impl" }
%"struct.std::_Vector_base<char, std::allocator<char>>::_Vector_impl" = type { %"struct.std::_Vector_base<char, std::allocator<char>>::_Vector_impl_data" }
%"struct.std::_Vector_base<char, std::allocator<char>>::_Vector_impl_data" = type { ptr, ptr, ptr }
%"class.std::vector.46" = type { %"struct.std::_Vector_base.47" }
%"struct.std::_Vector_base.47" = type { %"struct.std::_Vector_base<long long, std::allocator<long long>>::_Vector_impl" }
%"struct.std::_Vector_base<long long, std::allocator<long long>>::_Vector_impl" = type { %"struct.std::_Vector_base<long long, std::allocator<long long>>::_Vector_impl_data" }
%"struct.std::_Vector_base<long long, std::allocator<long long>>::_Vector_impl_data" = type { ptr, ptr, ptr }
%"class.std::vector.19" = type { %"struct.std::_Bvector_base" }
%"struct.std::_Bvector_base" = type { %"struct.std::_Bvector_base<std::allocator<bool>>::_Bvector_impl" }
%"struct.std::_Bvector_base<std::allocator<bool>>::_Bvector_impl" = type { %"struct.std::_Bvector_base<std::allocator<bool>>::_Bvector_impl_data" }
%"struct.std::_Bvector_base<std::allocator<bool>>::_Bvector_impl_data" = type { %"struct.std::_Bit_iterator", %"struct.std::_Bit_iterator", ptr }
%"struct.std::_Bit_iterator" = type { %"struct.std::_Bit_iterator_base.base", [4 x i8] }
%"struct.std::_Bit_iterator_base.base" = type <{ ptr, i32 }>
%"class.casadi::WeakRef" = type { %"class.casadi::SharedObject" }
%"struct.casadi::casadi_feasiblesqpmethod_prob" = type { ptr, ptr, ptr, ptr }
%"class.casadi::Function" = type { %"class.casadi::SharedObject" }
%"class.casadi::Sparsity" = type { %"class.casadi::SharedObject" }
%"struct.casadi::ConvexifyData" = type { %"class.std::vector.46", %"class.std::vector.46", %"class.casadi::Sparsity", %"class.casadi::Sparsity", %"class.casadi::Sparsity", %"struct.casadi::casadi_convexify_config", i64, i64, ptr, ptr }
%"struct.casadi::casadi_convexify_config" = type { i32, i32, ptr, ptr, double, i32, i32, ptr, ptr, i64, i64, i32 }
%"class.std::vector.52" = type { %"struct.std::_Vector_base.53" }
%"struct.std::_Vector_base.53" = type { %"struct.std::_Vector_base<double, std::allocator<double>>::_Vector_impl" }
%"struct.std::_Vector_base<double, std::allocator<double>>::_Vector_impl" = type { %"struct.std::_Vector_base<double, std::allocator<double>>::_Vector_impl_data" }
%"struct.std::_Vector_base<double, std::allocator<double>>::_Vector_impl_data" = type { ptr, ptr, ptr }

; Function Attrs: mustprogress nounwind uwtable
define linkonce_odr hidden void @_ZNSt15__new_allocatorIdEC2Ev(ptr noundef nonnull align 1 dereferenceable(1) %0) unnamed_addr #5 comdat align 2 {
  %2 = alloca ptr, align 8
  store ptr %0, ptr %2, align 8
  ret void
}

; Function Attrs: mustprogress nounwind uwtable
define linkonce_odr hidden void @_ZNSt12_Vector_baseIdSaIdEE17_Vector_impl_dataC2Ev(ptr noundef nonnull align 8 dereferenceable(24) %0) unnamed_addr #5 comdat align 2 {
  %2 = alloca ptr, align 8
  store ptr %0, ptr %2, align 8
  %3 = load ptr, ptr %2, align 8
  %4 = getelementptr inbounds %"struct.std::_Vector_base<double, std::allocator<double>>::_Vector_impl_data", ptr %3, i32 0, i32 0
  store ptr null, ptr %4, align 8
  %5 = getelementptr inbounds %"struct.std::_Vector_base<double, std::allocator<double>>::_Vector_impl_data", ptr %3, i32 0, i32 1
  store ptr null, ptr %5, align 8
  %6 = getelementptr inbounds %"struct.std::_Vector_base<double, std::allocator<double>>::_Vector_impl_data", ptr %3, i32 0, i32 2
  store ptr null, ptr %6, align 8
  ret void
}

; Function Attrs: mustprogress nounwind uwtable
define linkonce_odr hidden void @_ZNSaIdEC2Ev(ptr noundef nonnull align 1 dereferenceable(1) %0) unnamed_addr #5 comdat align 2 {
  %2 = alloca ptr, align 8
  store ptr %0, ptr %2, align 8
  %3 = load ptr, ptr %2, align 8
  call void @_ZNSt15__new_allocatorIdEC2Ev(ptr noundef nonnull align 1 dereferenceable(1) %3) #3
  ret void
}

; Function Attrs: mustprogress nounwind uwtable
define linkonce_odr hidden void @_ZNSt12_Vector_baseIdSaIdEE12_Vector_implC2Ev(ptr noundef nonnull align 8 dereferenceable(24) %0) unnamed_addr #5 comdat align 2 {
  %2 = alloca ptr, align 8
  store ptr %0, ptr %2, align 8
  %3 = load ptr, ptr %2, align 8
  call void @_ZNSaIdEC2Ev(ptr noundef nonnull align 1 dereferenceable(1) %3) #3
  call void @_ZNSt12_Vector_baseIdSaIdEE17_Vector_impl_dataC2Ev(ptr noundef nonnull align 8 dereferenceable(24) %3) #3
  ret void
}

; Function Attrs: mustprogress nounwind uwtable
define linkonce_odr hidden void @_ZNSt12_Vector_baseIdSaIdEEC2Ev(ptr noundef nonnull align 8 dereferenceable(24) %0) unnamed_addr #5 comdat align 2 {
  %2 = alloca ptr, align 8
  store ptr %0, ptr %2, align 8
  %3 = load ptr, ptr %2, align 8
  %4 = getelementptr inbounds %"struct.std::_Vector_base.53", ptr %3, i32 0, i32 0
  call void @_ZNSt12_Vector_baseIdSaIdEE12_Vector_implC2Ev(ptr noundef nonnull align 8 dereferenceable(24) %4) #3
  ret void
}

; Function Attrs: mustprogress nounwind uwtable
define linkonce_odr hidden void @_ZN6casadi8SparsityD2Ev(ptr noundef nonnull align 8 dereferenceable(8) %0) unnamed_addr #5 comdat align 2 {
  %2 = alloca ptr, align 8
  store ptr %0, ptr %2, align 8
  %3 = load ptr, ptr %2, align 8
  call void @_ZN6casadi12SharedObjectD2Ev(ptr noundef nonnull align 8 dereferenceable(8) %3) #3
  ret void
}

; Function Attrs: mustprogress nounwind uwtable
define linkonce_odr hidden void @_ZNSt6vectorIdSaIdEEC2Ev(ptr noundef nonnull align 8 dereferenceable(24) %0) unnamed_addr #5 comdat align 2 {
  %2 = alloca ptr, align 8
  store ptr %0, ptr %2, align 8
  %3 = load ptr, ptr %2, align 8
  call void @_ZNSt12_Vector_baseIdSaIdEEC2Ev(ptr noundef nonnull align 8 dereferenceable(24) %3) #3
  ret void
}

; Function Attrs: mustprogress uwtable
define void @_ZN6casadi17FeasiblesqpmethodC2ERKNSt7__cxx1112basic_stringIcSt11char_traitsIcESaIcEEERKNS_8FunctionE(ptr noundef nonnull align 8 dereferenceable(2392) %0, ptr noundef nonnull align 8 dereferenceable(32) %1, ptr noundef nonnull align 8 dereferenceable(8) %2) unnamed_addr #4 align 2 personality ptr @__gxx_personality_v0 {
  %4 = alloca ptr, align 8
  %5 = alloca ptr, align 8
  %6 = alloca ptr, align 8
  %7 = alloca ptr, align 8
  %8 = alloca i32, align 4
  store ptr %0, ptr %4, align 8
  store ptr %1, ptr %5, align 8
  store ptr %2, ptr %6, align 8
  %9 = load ptr, ptr %4, align 8
  %10 = load ptr, ptr %5, align 8
  %11 = load ptr, ptr %6, align 8
  call void @_ZN6casadi6NlpsolC2ERKNSt7__cxx1112basic_stringIcSt11char_traitsIcESaIcEEERKNS_8FunctionE(ptr noundef nonnull align 8 dereferenceable(1928) %9, ptr noundef nonnull align 8 dereferenceable(32) %10, ptr noundef nonnull align 8 dereferenceable(8) %11)
  store ptr getelementptr inbounds ({ [121 x ptr], [3 x ptr] }, ptr @_ZTVN6casadi17FeasiblesqpmethodE, i32 0, i32 0, i32 2), ptr %9, align 8
  %12 = getelementptr inbounds i8, ptr %9, i64 1520
  store ptr getelementptr inbounds ({ [121 x ptr], [3 x ptr] }, ptr @_ZTVN6casadi17FeasiblesqpmethodE, i32 0, i32 1, i32 2), ptr %12, align 8
  %13 = getelementptr inbounds %"class.casadi::Feasiblesqpmethod", ptr %9, i32 0, i32 2
  invoke void @_ZN6casadi8FunctionC1Ev(ptr noundef nonnull align 8 dereferenceable(8) %13)
          to label %14 unwind label %25

14:                                               ; preds = %3
  %15 = getelementptr inbounds %"class.casadi::Feasiblesqpmethod", ptr %9, i32 0, i32 3
  invoke void @_ZN6casadi8FunctionC1Ev(ptr noundef nonnull align 8 dereferenceable(8) %15)
          to label %16 unwind label %29

16:                                               ; preds = %14
  %17 = getelementptr inbounds %"class.casadi::Feasiblesqpmethod", ptr %9, i32 0, i32 7
  store i64 0, ptr %17, align 8
  %18 = getelementptr inbounds %"class.casadi::Feasiblesqpmethod", ptr %9, i32 0, i32 18
  invoke void @_ZN6casadi8SparsityC1Ex(ptr noundef nonnull align 8 dereferenceable(8) %18, i64 noundef 0)
          to label %19 unwind label %33

19:                                               ; preds = %16
  %20 = getelementptr inbounds %"class.casadi::Feasiblesqpmethod", ptr %9, i32 0, i32 19
  invoke void @_ZN6casadi8SparsityC1Ex(ptr noundef nonnull align 8 dereferenceable(8) %20, i64 noundef 0)
          to label %21 unwind label %37

21:                                               ; preds = %19
  %22 = getelementptr inbounds %"class.casadi::Feasiblesqpmethod", ptr %9, i32 0, i32 20
  invoke void @_ZN6casadi13ConvexifyDataC2Ev(ptr noundef nonnull align 8 dereferenceable(184) %22)
          to label %23 unwind label %41

23:                                               ; preds = %21
  %24 = getelementptr inbounds %"class.casadi::Feasiblesqpmethod", ptr %9, i32 0, i32 33
  call void @_ZNSt6vectorIdSaIdEEC2Ev(ptr noundef nonnull align 8 dereferenceable(24) %24) #3
  ret void

25:                                               ; preds = %3
  %26 = landingpad { ptr, i32 }
          cleanup
  %27 = extractvalue { ptr, i32 } %26, 0
  store ptr %27, ptr %7, align 8
  %28 = extractvalue { ptr, i32 } %26, 1
  store i32 %28, ptr %8, align 4
  br label %48

29:                                               ; preds = %14
  %30 = landingpad { ptr, i32 }
          cleanup
  %31 = extractvalue { ptr, i32 } %30, 0
  store ptr %31, ptr %7, align 8
  %32 = extractvalue { ptr, i32 } %30, 1
  store i32 %32, ptr %8, align 4
  br label %47

33:                                               ; preds = %16
  %34 = landingpad { ptr, i32 }
          cleanup
  %35 = extractvalue { ptr, i32 } %34, 0
  store ptr %35, ptr %7, align 8
  %36 = extractvalue { ptr, i32 } %34, 1
  store i32 %36, ptr %8, align 4
  br label %46

37:                                               ; preds = %19
  %38 = landingpad { ptr, i32 }
          cleanup
  %39 = extractvalue { ptr, i32 } %38, 0
  store ptr %39, ptr %7, align 8
  %40 = extractvalue { ptr, i32 } %38, 1
  store i32 %40, ptr %8, align 4
  br label %45

41:                                               ; preds = %21
  %42 = landingpad { ptr, i32 }
          cleanup
  %43 = extractvalue { ptr, i32 } %42, 0
  store ptr %43, ptr %7, align 8
  %44 = extractvalue { ptr, i32 } %42, 1
  store i32 %44, ptr %8, align 4
  call void @_ZN6casadi8SparsityD2Ev(ptr noundef nonnull align 8 dereferenceable(8) %20) #3
  br label %45

45:                                               ; preds = %41, %37
  call void @_ZN6casadi8SparsityD2Ev(ptr noundef nonnull align 8 dereferenceable(8) %18) #3
  br label %46

46:                                               ; preds = %45, %33
  call void @_ZN6casadi8FunctionD1Ev(ptr noundef nonnull align 8 dereferenceable(8) %15) #3
  br label %47

47:                                               ; preds = %46, %29
  call void @_ZN6casadi8FunctionD1Ev(ptr noundef nonnull align 8 dereferenceable(8) %13) #3
  br label %48

48:                                               ; preds = %47, %25
  call void @_ZN6casadi6NlpsolD2Ev(ptr noundef nonnull align 8 dereferenceable(1928) %9) #3
  br label %49

49:                                               ; preds = %48
  %50 = load ptr, ptr %7, align 8
  %51 = load i32, ptr %8, align 4
  %52 = insertvalue { ptr, i32 } poison, ptr %50, 0
  %53 = insertvalue { ptr, i32 } %52, i32 %51, 1
  resume { ptr, i32 } %53
}