; Function Attrs: mustprogress uwtable
define void @_ZN6casadi17FeasiblesqpmethodC2ERKNSt7__cxx1112basic_stringIcSt11char_traitsIcESaIcEEERKNS_8FunctionE(ptr noundef nonnull align 8 dereferenceable(2392) %0, ptr noundef nonnull align 8 dereferenceable(32) %1, ptr noundef nonnull align 8 dereferenceable(8) %2) unnamed_addr #3 align 2 personality ptr @__gxx_personality_v0 {
  tail call void @_ZN6casadi6NlpsolC2ERKNSt7__cxx1112basic_stringIcSt11char_traitsIcESaIcEEERKNS_8FunctionE(ptr noundef nonnull align 8 dereferenceable(1928) %0, ptr noundef nonnull align 8 dereferenceable(32) %1, ptr noundef nonnull align 8 dereferenceable(8) %2)
  store ptr getelementptr inbounds ({ [121 x ptr], [3 x ptr] }, ptr @_ZTVN6casadi17FeasiblesqpmethodE, i64 0, i32 0, i64 2), ptr %0, align 8
  %4 = getelementptr inbounds i8, ptr %0, i64 1520
  store ptr getelementptr inbounds ({ [121 x ptr], [3 x ptr] }, ptr @_ZTVN6casadi17FeasiblesqpmethodE, i64 0, i32 1, i64 2), ptr %4, align 8
  %5 = getelementptr inbounds i8, ptr %0, i64 1960
  invoke void @_ZN6casadi8FunctionC1Ev(ptr noundef nonnull align 8 dereferenceable(8) %5)
          to label %6 unwind label %17

6:                                                ; preds = %3
  %7 = getelementptr inbounds i8, ptr %0, i64 1968
  invoke void @_ZN6casadi8FunctionC1Ev(ptr noundef nonnull align 8 dereferenceable(8) %7)
          to label %8 unwind label %19

8:                                                ; preds = %6
  %9 = getelementptr inbounds i8, ptr %0, i64 1984
  store i64 0, ptr %9, align 8
  %10 = getelementptr inbounds i8, ptr %0, i64 2048
  invoke void @_ZN6casadi8SparsityC1Ex(ptr noundef nonnull align 8 dereferenceable(8) %10, i64 noundef 0)
          to label %11 unwind label %21

11:                                               ; preds = %8
  %12 = getelementptr inbounds i8, ptr %0, i64 2056
  invoke void @_ZN6casadi8SparsityC1Ex(ptr noundef nonnull align 8 dereferenceable(8) %12, i64 noundef 0)
          to label %13 unwind label %23

13:                                               ; preds = %11
  %14 = getelementptr inbounds i8, ptr %0, i64 2064
  invoke void @_ZN6casadi13ConvexifyDataC2Ev(ptr noundef nonnull align 8 dereferenceable(184) %14)
          to label %15 unwind label %25

15:                                               ; preds = %13
  %16 = getelementptr inbounds i8, ptr %0, i64 2344
  tail call void @llvm.memset.p0.i64(ptr noundef nonnull align 8 dereferenceable(24) %16, i8 0, i64 24, i1 false)
  ret void

17:                                               ; preds = %3
  %18 = landingpad { ptr, i32 }
          cleanup
  br label %30

19:                                               ; preds = %6
  %20 = landingpad { ptr, i32 }
          cleanup
  br label %29

21:                                               ; preds = %8
  %22 = landingpad { ptr, i32 }
          cleanup
  br label %28

23:                                               ; preds = %11
  %24 = landingpad { ptr, i32 }
          cleanup
  br label %27

25:                                               ; preds = %13
  %26 = landingpad { ptr, i32 }
          cleanup
  tail call void @_ZN6casadi12SharedObjectD2Ev(ptr noundef nonnull align 8 dereferenceable(8) %12) #24
  br label %27

27:                                               ; preds = %25, %23
  %.pn = phi { ptr, i32 } [ %26, %25 ], [ %24, %23 ]
  tail call void @_ZN6casadi12SharedObjectD2Ev(ptr noundef nonnull align 8 dereferenceable(8) %10) #24
  br label %28

28:                                               ; preds = %27, %21
  %.pn.pn = phi { ptr, i32 } [ %.pn, %27 ], [ %22, %21 ]
  tail call void @_ZN6casadi8FunctionD1Ev(ptr noundef nonnull align 8 dereferenceable(8) %7) #24
  br label %29

29:                                               ; preds = %28, %19
  %.pn.pn.pn = phi { ptr, i32 } [ %.pn.pn, %28 ], [ %20, %19 ]
  tail call void @_ZN6casadi8FunctionD1Ev(ptr noundef nonnull align 8 dereferenceable(8) %5) #24
  br label %30

30:                                               ; preds = %29, %17
  %.pn.pn.pn.pn = phi { ptr, i32 } [ %.pn.pn.pn, %29 ], [ %18, %17 ]
  tail call void @_ZN6casadi6NlpsolD2Ev(ptr noundef nonnull align 8 dereferenceable(1928) %0) #24
  resume { ptr, i32 } %.pn.pn.pn.pn
}